target datalayout = "e-m:e-p270:32:32-p271:32:32-p272:64:64-i64:64-i128:128-f80:128-n8:16:32:64-S128"
target triple = "x86_64-pc-linux-gnu"

%struct._value_string_ext = type { ptr, i32, i32, ptr, ptr }

@gsm_common_elem_strings_ext = hidden global %struct._value_string_ext { ptr @_try_val_to_str_ext_init, i32 0, i32 18, ptr @gsm_common_elem_strings, ptr @.str }, align 8
@gsm_bssmap_elem_strings_ext = external global %struct._value_string_ext, align 8
@.str.42 = private unnamed_addr constant [27 x i8] c"GSM_A_PDU_TYPE_BSSMAP (%u)\00", align 1
@gsm_dtap_elem_strings_ext = external global %struct._value_string_ext, align 8
@.str.43 = private unnamed_addr constant [25 x i8] c"GSM_A_PDU_TYPE_DTAP (%u)\00", align 1
@gsm_rp_elem_strings_ext = external global %struct._value_string_ext, align 8
@.str.44 = private unnamed_addr constant [23 x i8] c"GSM_A_PDU_TYPE_RP (%u)\00", align 1
@gsm_rr_elem_strings_ext = external global %struct._value_string_ext, align 8
@.str.45 = private unnamed_addr constant [23 x i8] c"GSM_A_PDU_TYPE_RR (%u)\00", align 1
@.str.46 = private unnamed_addr constant [27 x i8] c"GSM_A_PDU_TYPE_COMMON (%u)\00", align 1
@gsm_gm_elem_strings_ext = external global %struct._value_string_ext, align 8
@.str.47 = private unnamed_addr constant [23 x i8] c"GSM_A_PDU_TYPE_GM (%u)\00", align 1
@gsm_bsslap_elem_strings_ext = external global %struct._value_string_ext, align 8
@.str.48 = private unnamed_addr constant [27 x i8] c"GSM_A_PDU_TYPE_BSSLAP (%u)\00", align 1
@gsm_bssmap_le_elem_strings_ext = external global %struct._value_string_ext, align 8
@.str.49 = private unnamed_addr constant [28 x i8] c"GSM_PDU_TYPE_BSSMAP_LE (%u)\00", align 1
@nas_eps_common_elem_strings_ext = external global %struct._value_string_ext, align 8
@.str.50 = private unnamed_addr constant [25 x i8] c"NAS_PDU_TYPE_COMMON (%u)\00", align 1
@nas_emm_elem_strings_ext = external global %struct._value_string_ext, align 8
@.str.51 = private unnamed_addr constant [22 x i8] c"NAS_PDU_TYPE_EMM (%u)\00", align 1
@nas_esm_elem_strings_ext = external global %struct._value_string_ext, align 8
@.str.52 = private unnamed_addr constant [22 x i8] c"NAS_PDU_TYPE_ESM (%u)\00", align 1
@sgsap_elem_strings_ext = external global %struct._value_string_ext, align 8
@.str.53 = private unnamed_addr constant [20 x i8] c"SGSAP_PDU_TYPE (%u)\00", align 1
@bssgp_elem_strings_ext = external global %struct._value_string_ext, align 8
@.str.54 = private unnamed_addr constant [20 x i8] c"BSSGP_PDU_TYPE (%u)\00", align 1
@gmr1_ie_common_strings_ext = external global %struct._value_string_ext, align 8
@.str.55 = private unnamed_addr constant [20 x i8] c"GMR1_IE_COMMON (%u)\00", align 1
@gmr1_ie_rr_strings_ext = external global %struct._value_string_ext, align 8
@.str.56 = private unnamed_addr constant [16 x i8] c"GMR1_IE_RR (%u)\00", align 1
@nas_5gs_common_elem_strings_ext = external global %struct._value_string_ext, align 8
@.str.57 = private unnamed_addr constant [29 x i8] c"NAS_5GS_PDU_TYPE_COMMON (%u)\00", align 1
@nas_5gs_mm_elem_strings_ext = external global %struct._value_string_ext, align 8
@.str.58 = private unnamed_addr constant [25 x i8] c"NAS_5GS_PDU_TYPE_MM (%u)\00", align 1
@nas_5gs_sm_elem_strings_ext = external global %struct._value_string_ext, align 8
@.str.59 = private unnamed_addr constant [25 x i8] c"NAS_5GS_PDU_TYPE_SM (%u)\00", align 1
@nas_5gs_updp_elem_strings_ext = external global %struct._value_string_ext, align 8
@.str.60 = private unnamed_addr constant [27 x i8] c"NAS_5GS_PDU_TYPE_UPDP (%u)\00", align 1
@.str.61 = private unnamed_addr constant [55 x i8] c"%s:%u: failed assertion \22DISSECTOR_ASSERT_NOT_REACHED\22\00", align 1
@.str.62 = private unnamed_addr constant [38 x i8] c"epan/dissectors/packet-gsm_a_common.c\00", align 1

; Function Attrs: null_pointer_is_valid sspstrong uwtable
define hidden ptr @get_gsm_a_msg_string(i32 noundef %0, i32 noundef %1) #1 {
  %3 = alloca i32, align 4
  %4 = alloca i32, align 4
  %5 = alloca ptr, align 8
  store i32 %0, ptr %3, align 4
  store i32 %1, ptr %4, align 4
  call void @llvm.lifetime.start.p0(i64 8, ptr %5) #9
  store ptr null, ptr %5, align 8
  %6 = load i32, ptr %3, align 4
  switch i32 %6, label %64 [
    i32 0, label %7
    i32 1, label %10
    i32 2, label %13
    i32 3, label %16
    i32 4, label %19
    i32 5, label %22
    i32 6, label %25
    i32 8, label %28
    i32 9, label %31
    i32 10, label %34
    i32 11, label %37
    i32 12, label %40
    i32 13, label %43
    i32 14, label %46
    i32 15, label %49
    i32 16, label %52
    i32 17, label %55
    i32 18, label %58
    i32 19, label %61
  ]

7:                                                ; preds = %2
  %8 = load i32, ptr %4, align 4
  %9 = call ptr @val_to_str_ext(i32 noundef %8, ptr noundef @gsm_bssmap_elem_strings_ext, ptr noundef @.str.42)
  store ptr %9, ptr %5, align 8
  br label %65

10:                                               ; preds = %2
  %11 = load i32, ptr %4, align 4
  %12 = call ptr @val_to_str_ext(i32 noundef %11, ptr noundef @gsm_dtap_elem_strings_ext, ptr noundef @.str.43)
  store ptr %12, ptr %5, align 8
  br label %65

13:                                               ; preds = %2
  %14 = load i32, ptr %4, align 4
  %15 = call ptr @val_to_str_ext(i32 noundef %14, ptr noundef @gsm_rp_elem_strings_ext, ptr noundef @.str.44)
  store ptr %15, ptr %5, align 8
  br label %65

16:                                               ; preds = %2
  %17 = load i32, ptr %4, align 4
  %18 = call ptr @val_to_str_ext(i32 noundef %17, ptr noundef @gsm_rr_elem_strings_ext, ptr noundef @.str.45)
  store ptr %18, ptr %5, align 8
  br label %65

19:                                               ; preds = %2
  %20 = load i32, ptr %4, align 4
  %21 = call ptr @val_to_str_ext(i32 noundef %20, ptr noundef @gsm_common_elem_strings_ext, ptr noundef @.str.46)
  store ptr %21, ptr %5, align 8
  br label %65

22:                                               ; preds = %2
  %23 = load i32, ptr %4, align 4
  %24 = call ptr @val_to_str_ext(i32 noundef %23, ptr noundef @gsm_gm_elem_strings_ext, ptr noundef @.str.47)
  store ptr %24, ptr %5, align 8
  br label %65

25:                                               ; preds = %2
  %26 = load i32, ptr %4, align 4
  %27 = call ptr @val_to_str_ext(i32 noundef %26, ptr noundef @gsm_bsslap_elem_strings_ext, ptr noundef @.str.48)
  store ptr %27, ptr %5, align 8
  br label %65

28:                                               ; preds = %2
  %29 = load i32, ptr %4, align 4
  %30 = call ptr @val_to_str_ext(i32 noundef %29, ptr noundef @gsm_bssmap_le_elem_strings_ext, ptr noundef @.str.49)
  store ptr %30, ptr %5, align 8
  br label %65

31:                                               ; preds = %2
  %32 = load i32, ptr %4, align 4
  %33 = call ptr @val_to_str_ext(i32 noundef %32, ptr noundef @nas_eps_common_elem_strings_ext, ptr noundef @.str.50)
  store ptr %33, ptr %5, align 8
  br label %65

34:                                               ; preds = %2
  %35 = load i32, ptr %4, align 4
  %36 = call ptr @val_to_str_ext(i32 noundef %35, ptr noundef @nas_emm_elem_strings_ext, ptr noundef @.str.51)
  store ptr %36, ptr %5, align 8
  br label %65

37:                                               ; preds = %2
  %38 = load i32, ptr %4, align 4
  %39 = call ptr @val_to_str_ext(i32 noundef %38, ptr noundef @nas_esm_elem_strings_ext, ptr noundef @.str.52)
  store ptr %39, ptr %5, align 8
  br label %65

40:                                               ; preds = %2
  %41 = load i32, ptr %4, align 4
  %42 = call ptr @val_to_str_ext(i32 noundef %41, ptr noundef @sgsap_elem_strings_ext, ptr noundef @.str.53)
  store ptr %42, ptr %5, align 8
  br label %65

43:                                               ; preds = %2
  %44 = load i32, ptr %4, align 4
  %45 = call ptr @val_to_str_ext(i32 noundef %44, ptr noundef @bssgp_elem_strings_ext, ptr noundef @.str.54)
  store ptr %45, ptr %5, align 8
  br label %65

46:                                               ; preds = %2
  %47 = load i32, ptr %4, align 4
  %48 = call ptr @val_to_str_ext(i32 noundef %47, ptr noundef @gmr1_ie_common_strings_ext, ptr noundef @.str.55)
  store ptr %48, ptr %5, align 8
  br label %65

49:                                               ; preds = %2
  %50 = load i32, ptr %4, align 4
  %51 = call ptr @val_to_str_ext(i32 noundef %50, ptr noundef @gmr1_ie_rr_strings_ext, ptr noundef @.str.56)
  store ptr %51, ptr %5, align 8
  br label %65

52:                                               ; preds = %2
  %53 = load i32, ptr %4, align 4
  %54 = call ptr @val_to_str_ext(i32 noundef %53, ptr noundef @nas_5gs_common_elem_strings_ext, ptr noundef @.str.57)
  store ptr %54, ptr %5, align 8
  br label %65

55:                                               ; preds = %2
  %56 = load i32, ptr %4, align 4
  %57 = call ptr @val_to_str_ext(i32 noundef %56, ptr noundef @nas_5gs_mm_elem_strings_ext, ptr noundef @.str.58)
  store ptr %57, ptr %5, align 8
  br label %65

58:                                               ; preds = %2
  %59 = load i32, ptr %4, align 4
  %60 = call ptr @val_to_str_ext(i32 noundef %59, ptr noundef @nas_5gs_sm_elem_strings_ext, ptr noundef @.str.59)
  store ptr %60, ptr %5, align 8
  br label %65

61:                                               ; preds = %2
  %62 = load i32, ptr %4, align 4
  %63 = call ptr @val_to_str_ext(i32 noundef %62, ptr noundef @nas_5gs_updp_elem_strings_ext, ptr noundef @.str.60)
  store ptr %63, ptr %5, align 8
  br label %65

64:                                               ; preds = %2
  call void (ptr, ...) @proto_report_dissector_bug(ptr noundef @.str.61, ptr noundef @.str.62, i32 noundef 1350) #10
  unreachable

65:                                               ; preds = %61, %58, %55, %52, %49, %46, %43, %40, %37, %34, %31, %28, %25, %22, %19, %16, %13, %10, %7
  %66 = load ptr, ptr %5, align 8
  call void @llvm.lifetime.end.p0(i64 8, ptr %5) #9
  ret ptr %66
}