; Function Attrs: null_pointer_is_valid sspstrong uwtable
define hidden ptr @get_gsm_a_msg_string(i32 noundef %0, i32 noundef %1) local_unnamed_addr #1 {
  switch i32 %0, label %41 [
    i32 0, label %3
    i32 1, label %5
    i32 2, label %7
    i32 3, label %9
    i32 4, label %11
    i32 5, label %13
    i32 6, label %15
    i32 8, label %17
    i32 9, label %19
    i32 10, label %21
    i32 11, label %23
    i32 12, label %25
    i32 13, label %27
    i32 14, label %29
    i32 15, label %31
    i32 16, label %33
    i32 17, label %35
    i32 18, label %37
    i32 19, label %39
  ]

3:                                                ; preds = %2
  %4 = tail call ptr @val_to_str_ext(i32 noundef %1, ptr noundef nonnull @gsm_bssmap_elem_strings_ext, ptr noundef nonnull @.str.42)
  br label %42

5:                                                ; preds = %2
  %6 = tail call ptr @val_to_str_ext(i32 noundef %1, ptr noundef nonnull @gsm_dtap_elem_strings_ext, ptr noundef nonnull @.str.43)
  br label %42

7:                                                ; preds = %2
  %8 = tail call ptr @val_to_str_ext(i32 noundef %1, ptr noundef nonnull @gsm_rp_elem_strings_ext, ptr noundef nonnull @.str.44)
  br label %42

9:                                                ; preds = %2
  %10 = tail call ptr @val_to_str_ext(i32 noundef %1, ptr noundef nonnull @gsm_rr_elem_strings_ext, ptr noundef nonnull @.str.45)
  br label %42

11:                                               ; preds = %2
  %12 = tail call ptr @val_to_str_ext(i32 noundef %1, ptr noundef nonnull @gsm_common_elem_strings_ext, ptr noundef nonnull @.str.46)
  br label %42

13:                                               ; preds = %2
  %14 = tail call ptr @val_to_str_ext(i32 noundef %1, ptr noundef nonnull @gsm_gm_elem_strings_ext, ptr noundef nonnull @.str.47)
  br label %42

15:                                               ; preds = %2
  %16 = tail call ptr @val_to_str_ext(i32 noundef %1, ptr noundef nonnull @gsm_bsslap_elem_strings_ext, ptr noundef nonnull @.str.48)
  br label %42

17:                                               ; preds = %2
  %18 = tail call ptr @val_to_str_ext(i32 noundef %1, ptr noundef nonnull @gsm_bssmap_le_elem_strings_ext, ptr noundef nonnull @.str.49)
  br label %42

19:                                               ; preds = %2
  %20 = tail call ptr @val_to_str_ext(i32 noundef %1, ptr noundef nonnull @nas_eps_common_elem_strings_ext, ptr noundef nonnull @.str.50)
  br label %42

21:                                               ; preds = %2
  %22 = tail call ptr @val_to_str_ext(i32 noundef %1, ptr noundef nonnull @nas_emm_elem_strings_ext, ptr noundef nonnull @.str.51)
  br label %42

23:                                               ; preds = %2
  %24 = tail call ptr @val_to_str_ext(i32 noundef %1, ptr noundef nonnull @nas_esm_elem_strings_ext, ptr noundef nonnull @.str.52)
  br label %42

25:                                               ; preds = %2
  %26 = tail call ptr @val_to_str_ext(i32 noundef %1, ptr noundef nonnull @sgsap_elem_strings_ext, ptr noundef nonnull @.str.53)
  br label %42

27:                                               ; preds = %2
  %28 = tail call ptr @val_to_str_ext(i32 noundef %1, ptr noundef nonnull @bssgp_elem_strings_ext, ptr noundef nonnull @.str.54)
  br label %42

29:                                               ; preds = %2
  %30 = tail call ptr @val_to_str_ext(i32 noundef %1, ptr noundef nonnull @gmr1_ie_common_strings_ext, ptr noundef nonnull @.str.55)
  br label %42

31:                                               ; preds = %2
  %32 = tail call ptr @val_to_str_ext(i32 noundef %1, ptr noundef nonnull @gmr1_ie_rr_strings_ext, ptr noundef nonnull @.str.56)
  br label %42

33:                                               ; preds = %2
  %34 = tail call ptr @val_to_str_ext(i32 noundef %1, ptr noundef nonnull @nas_5gs_common_elem_strings_ext, ptr noundef nonnull @.str.57)
  br label %42

35:                                               ; preds = %2
  %36 = tail call ptr @val_to_str_ext(i32 noundef %1, ptr noundef nonnull @nas_5gs_mm_elem_strings_ext, ptr noundef nonnull @.str.58)
  br label %42

37:                                               ; preds = %2
  %38 = tail call ptr @val_to_str_ext(i32 noundef %1, ptr noundef nonnull @nas_5gs_sm_elem_strings_ext, ptr noundef nonnull @.str.59)
  br label %42

39:                                               ; preds = %2
  %40 = tail call ptr @val_to_str_ext(i32 noundef %1, ptr noundef nonnull @nas_5gs_updp_elem_strings_ext, ptr noundef nonnull @.str.60)
  br label %42

41:                                               ; preds = %2
  tail call void (ptr, ...) @proto_report_dissector_bug(ptr noundef nonnull @.str.61, ptr noundef nonnull @.str.62, i32 noundef 1350) #9
  unreachable

42:                                               ; preds = %39, %37, %35, %33, %31, %29, %27, %25, %23, %21, %19, %17, %15, %13, %11, %9, %7, %5, %3
  %.0 = phi ptr [ %40, %39 ], [ %38, %37 ], [ %36, %35 ], [ %34, %33 ], [ %32, %31 ], [ %30, %29 ], [ %28, %27 ], [ %26, %25 ], [ %24, %23 ], [ %22, %21 ], [ %20, %19 ], [ %18, %17 ], [ %16, %15 ], [ %14, %13 ], [ %12, %11 ], [ %10, %9 ], [ %8, %7 ], [ %6, %5 ], [ %4, %3 ]
  ret ptr %.0
}